; Function Attrs: mustprogress nofree nounwind willreturn memory(write) uwtable
define internal fastcc noundef double @_ZN8QuantLib12_GLOBAL__N_12ffEddddd(double noundef %p, double noundef %tt, double noundef %a, double noundef %b, double noundef %gm) unnamed_addr #21 {
entry:
  %0 = fneg double %tt
  %neg = fmul double %b, %0
  %1 = tail call double @llvm.fmuladd.f64(double %b, double %p, double %neg)
  %add = fadd double %a, %1
  %fneg = fneg double %add
  %sub = fsub double %tt, %p
  %mul = fmul double %sub, 2.000000e+00
  %call = tail call double @pow(double noundef %mul, double noundef 5.000000e-01) #30, !tbaa !108
  %div = fdiv double %fneg, %call
  %2 = tail call double @llvm.fabs.f64(double %div)
  %cmp.i = fcmp ogt double %2, 3.700000e+01
  br i1 %cmp.i, label %_ZN8QuantLib12_GLOBAL__N_14PHIDEd.exit, label %if.else.i

if.else.i:                                        ; preds = %entry
  %fneg.i = fneg double %2
  %mul.i = fmul double %2, %fneg.i
  %div.i = fmul double %mul.i, 5.000000e-01
  %call.i = tail call double @exp(double noundef %div.i) #30, !tbaa !108
  %cmp1.i = fcmp olt double %2, 0x401C48C6001F0ABF
  br i1 %cmp1.i, label %if.then2.i, label %if.else18.i

if.then2.i:                                       ; preds = %if.else.i
  %3 = tail call double @llvm.fmuladd.f64(double %2, double 0x3FA20DED0B57FBDD, double 0x3FE66989BE8EA720)
  %4 = tail call double @llvm.fmuladd.f64(double %3, double %2, double 0x40197EEFF2A86F23)
  %5 = tail call double @llvm.fmuladd.f64(double %4, double %2, double 0x4040F4D8CBB02431)
  %6 = tail call double @llvm.fmuladd.f64(double %5, double %2, double 0x405C05131CA58D35)
  %7 = tail call double @llvm.fmuladd.f64(double %6, double %2, double 0x406BA6D5C7A28CF5)
  %8 = tail call double @llvm.fmuladd.f64(double %7, double %2, double 0x406B869EA974C7E9)
  %mul9.i = fmul double %8, %call.i
  %9 = tail call double @llvm.fmuladd.f64(double %2, double 0x3FB6A09E667F3BCD, double 0x3FFC173673887D1A)
  %10 = tail call double @llvm.fmuladd.f64(double %9, double %2, double 0x4030106DF11BD48F)
  %11 = tail call double @llvm.fmuladd.f64(double %10, double %2, double 0x4055B1F78433A599)
  %12 = tail call double @llvm.fmuladd.f64(double %11, double %2, double 0x4072890729BA781A)
  %13 = tail call double @llvm.fmuladd.f64(double %12, double %2, double 0x4083EAAB47FA1778)
  %14 = tail call double @llvm.fmuladd.f64(double %13, double %2, double 0x4088CE9CB298974E)
  %15 = tail call double @llvm.fmuladd.f64(double %14, double %2, double 0x407B869EA974C7E9)
  %div17.i = fdiv double %mul9.i, %15
  br label %_ZN8QuantLib12_GLOBAL__N_14PHIDEd.exit

if.else18.i:                                      ; preds = %if.else.i
  %add.i = fadd double %2, 6.500000e-01
  %div19.i = fdiv double 4.000000e+00, %add.i
  %add20.i = fadd double %2, %div19.i
  %div21.i = fdiv double 3.000000e+00, %add20.i
  %add22.i = fadd double %2, %div21.i
  %div23.i = fdiv double 2.000000e+00, %add22.i
  %add24.i = fadd double %2, %div23.i
  %div25.i = fdiv double 1.000000e+00, %add24.i
  %add26.i = fadd double %2, %div25.i
  %div27.i = fdiv double %call.i, %add26.i
  %div28.i = fdiv double %div27.i, 0x40040D931FF62707
  br label %_ZN8QuantLib12_GLOBAL__N_14PHIDEd.exit

_ZN8QuantLib12_GLOBAL__N_14PHIDEd.exit:           ; preds = %entry, %if.then2.i, %if.else18.i
  %P.0.i = phi double [ %div17.i, %if.then2.i ], [ %div28.i, %if.else18.i ], [ 0.000000e+00, %entry ]
  %cmp30.i = fcmp ogt double %div, 0.000000e+00
  %sub.i = fsub double 1.000000e+00, %P.0.i
  %P.1.i = select i1 %cmp30.i, double %sub.i, double %P.0.i
  %mul5 = fmul double %P.1.i, 0x400C5BF891B4EF6A
  %sub7 = fsub double 1.000000e+00, %gm
  %16 = fneg double %sub7
  %neg10 = fmul double %sub7, %16
  %17 = tail call double @llvm.fmuladd.f64(double %b, double %b, double %neg10)
  %div11 = fmul double %17, 2.500000e-01
  %mul12 = fmul double %a, -5.000000e-01
  %mul13 = fmul double %mul12, %b
  %call14 = tail call double @exp(double noundef %mul13) #30, !tbaa !108
  %mul16 = fmul double %sub, %div11
  %call17 = tail call double @exp(double noundef %mul16) #30, !tbaa !108
  %mul18 = fmul double %call14, %call17
  %mul19 = fmul double %mul18, %mul5
  ret double %mul19
}